target datalayout = "e-m:e-p270:32:32-p271:32:32-p272:64:64-i64:64-i128:128-f80:128-n8:16:32:64-S128"
target triple = "x86_64-pc-linux-gnu"

%"class.toku::comparator" = type <{ ptr, ptr, i8, [7 x i8] }>
%"class.toku::keyrange" = type <{ %struct.__toku_dbt, %struct.__toku_dbt, ptr, ptr, i8, [7 x i8] }>
%struct.__toku_dbt = type { ptr, i64, i64, i32 }
%"class.toku::GrowableArray" = type { ptr, i64, i64 }
%"struct.toku::row_lock" = type { %"class.toku::keyrange", i64, i8, ptr }
%struct.copy_fn_obj.9 = type { ptr, i8, i8, ptr, ptr, ptr }

; Function Attrs: inlinehint mustprogress nounwind uwtable
define linkonce_odr noundef zeroext i1 @_ZNK4toku10comparator20dbt_has_memcmp_magicEPK10__toku_dbt(ptr noundef nonnull align 8 dereferenceable(17) %0, ptr noundef %1) #4 comdat align 2 {
  %3 = alloca ptr, align 8
  %4 = alloca ptr, align 8
  store ptr %0, ptr %3, align 8, !tbaa !11
  store ptr %1, ptr %4, align 8, !tbaa !89
  %5 = load ptr, ptr %3, align 8
  %6 = load ptr, ptr %4, align 8, !tbaa !89
  %7 = getelementptr inbounds nuw %struct.__toku_dbt, ptr %6, i32 0, i32 0
  %8 = load ptr, ptr %7, align 8, !tbaa !230
  %9 = load i8, ptr %8, align 1, !tbaa !85
  %10 = sext i8 %9 to i32
  %11 = getelementptr inbounds nuw %"class.toku::comparator", ptr %5, i32 0, i32 2
  %12 = load i8, ptr %11, align 8, !tbaa !182
  %13 = zext i8 %12 to i32
  %14 = icmp eq i32 %10, %13
  ret i1 %14
}

; Function Attrs: mustprogress uwtable
define linkonce_odr void @_ZN4toku13GrowableArrayINS_8row_lockEE4pushES1_(ptr noundef nonnull align 8 dereferenceable(24) %0, ptr noundef byval(%"struct.toku::row_lock") align 8 %1) #0 comdat align 2 {
  %3 = alloca ptr, align 8
  store ptr %0, ptr %3, align 8, !tbaa !120
  %4 = load ptr, ptr %3, align 8
  %5 = getelementptr inbounds nuw %"class.toku::GrowableArray", ptr %4, i32 0, i32 1
  %6 = load i64, ptr %5, align 8, !tbaa !125
  %7 = getelementptr inbounds nuw %"class.toku::GrowableArray", ptr %4, i32 0, i32 2
  %8 = load i64, ptr %7, align 8, !tbaa !126
  %9 = icmp uge i64 %6, %8
  br i1 %9, label %10, label %28

10:                                               ; preds = %2
  %11 = getelementptr inbounds nuw %"class.toku::GrowableArray", ptr %4, i32 0, i32 0
  %12 = load ptr, ptr %11, align 8, !tbaa !122
  %13 = icmp eq ptr %12, null
  br i1 %13, label %14, label %16

14:                                               ; preds = %10
  %15 = getelementptr inbounds nuw %"class.toku::GrowableArray", ptr %4, i32 0, i32 2
  store i64 1, ptr %15, align 8, !tbaa !126
  br label %20

16:                                               ; preds = %10
  %17 = getelementptr inbounds nuw %"class.toku::GrowableArray", ptr %4, i32 0, i32 2
  %18 = load i64, ptr %17, align 8, !tbaa !126
  %19 = mul i64 %18, 2
  store i64 %19, ptr %17, align 8, !tbaa !126
  br label %20

20:                                               ; preds = %16, %14
  %21 = getelementptr inbounds nuw %"class.toku::GrowableArray", ptr %4, i32 0, i32 0
  %22 = load ptr, ptr %21, align 8, !tbaa !122
  %23 = getelementptr inbounds nuw %"class.toku::GrowableArray", ptr %4, i32 0, i32 2
  %24 = load i64, ptr %23, align 8, !tbaa !126
  %25 = mul i64 %24, 112
  %26 = call noundef ptr @_Z13toku_xreallocPvm(ptr noundef %22, i64 noundef %25)
  %27 = getelementptr inbounds nuw %"class.toku::GrowableArray", ptr %4, i32 0, i32 0
  store ptr %26, ptr %27, align 8, !tbaa !122
  br label %28

28:                                               ; preds = %20, %2
  %29 = getelementptr inbounds nuw %"class.toku::GrowableArray", ptr %4, i32 0, i32 0
  %30 = load ptr, ptr %29, align 8, !tbaa !122
  %31 = getelementptr inbounds nuw %"class.toku::GrowableArray", ptr %4, i32 0, i32 1
  %32 = load i64, ptr %31, align 8, !tbaa !125
  %33 = add i64 %32, 1
  store i64 %33, ptr %31, align 8, !tbaa !125
  %34 = getelementptr inbounds nuw %"struct.toku::row_lock", ptr %30, i64 %32
  call void @llvm.memcpy.p0.p0.i64(ptr align 8 %34, ptr align 8 %1, i64 112, i1 false), !tbaa.struct !140
  ret void
}

; Function Attrs: mustprogress uwtable
define linkonce_odr noundef i32 @_ZNK4toku10comparatorclEPK10__toku_dbtS3_(ptr noundef nonnull align 8 dereferenceable(17) %0, ptr noundef %1, ptr noundef %2) #0 comdat align 2 {
  %4 = alloca i32, align 4
  %5 = alloca ptr, align 8
  %6 = alloca ptr, align 8
  %7 = alloca ptr, align 8
  store ptr %0, ptr %5, align 8, !tbaa !11
  store ptr %1, ptr %6, align 8, !tbaa !89
  store ptr %2, ptr %7, align 8, !tbaa !89
  %8 = load ptr, ptr %5, align 8
  %9 = load ptr, ptr %6, align 8, !tbaa !89
  %10 = call noundef zeroext i1 @_Z20toku_dbt_is_infinitePK10__toku_dbt(ptr noundef %9)
  br i1 %10, label %14, label %11

11:                                               ; preds = %3
  %12 = load ptr, ptr %7, align 8, !tbaa !89
  %13 = call noundef zeroext i1 @_Z20toku_dbt_is_infinitePK10__toku_dbt(ptr noundef %12)
  br label %14

14:                                               ; preds = %11, %3
  %15 = phi i1 [ true, %3 ], [ %13, %11 ]
  %16 = zext i1 %15 to i64
  %17 = call i64 @llvm.expect.i64(i64 %16, i64 0)
  %18 = icmp ne i64 %17, 0
  br i1 %18, label %19, label %23

19:                                               ; preds = %14
  %20 = load ptr, ptr %6, align 8, !tbaa !89
  %21 = load ptr, ptr %7, align 8, !tbaa !89
  %22 = call noundef i32 @_Z25toku_dbt_infinite_comparePK10__toku_dbtS1_(ptr noundef %20, ptr noundef %21)
  store i32 %22, ptr %4, align 4
  br label %49

23:                                               ; preds = %14
  %24 = getelementptr inbounds nuw %"class.toku::comparator", ptr %8, i32 0, i32 2
  %25 = load i8, ptr %24, align 8, !tbaa !182
  %26 = zext i8 %25 to i32
  %27 = icmp ne i32 %26, 0
  br i1 %27, label %28, label %41

28:                                               ; preds = %23
  %29 = load ptr, ptr %6, align 8, !tbaa !89
  %30 = call noundef zeroext i1 @_ZNK4toku10comparator20dbt_has_memcmp_magicEPK10__toku_dbt(ptr noundef nonnull align 8 dereferenceable(17) %8, ptr noundef %29)
  br i1 %30, label %31, label %41

31:                                               ; preds = %28
  %32 = load ptr, ptr %7, align 8, !tbaa !89
  %33 = call noundef zeroext i1 @_ZNK4toku10comparator20dbt_has_memcmp_magicEPK10__toku_dbt(ptr noundef nonnull align 8 dereferenceable(17) %8, ptr noundef %32)
  %34 = zext i1 %33 to i64
  %35 = call i64 @llvm.expect.i64(i64 %34, i64 1)
  %36 = icmp ne i64 %35, 0
  br i1 %36, label %37, label %41

37:                                               ; preds = %31
  %38 = load ptr, ptr %6, align 8, !tbaa !89
  %39 = load ptr, ptr %7, align 8, !tbaa !89
  %40 = call noundef i32 @_Z24toku_builtin_compare_funPK10__toku_dbtS1_(ptr noundef %38, ptr noundef %39)
  store i32 %40, ptr %4, align 4
  br label %49

41:                                               ; preds = %31, %28, %23
  %42 = getelementptr inbounds nuw %"class.toku::comparator", ptr %8, i32 0, i32 0
  %43 = load ptr, ptr %42, align 8, !tbaa !180
  %44 = getelementptr inbounds nuw %"class.toku::comparator", ptr %8, i32 0, i32 1
  %45 = load ptr, ptr %44, align 8, !tbaa !181
  %46 = load ptr, ptr %6, align 8, !tbaa !89
  %47 = load ptr, ptr %7, align 8, !tbaa !89
  %48 = call noundef i32 %43(ptr noundef %45, ptr noundef %46, ptr noundef %47)
  store i32 %48, ptr %4, align 4
  br label %49

49:                                               ; preds = %41, %37, %19
  %50 = load i32, ptr %4, align 4
  ret i32 %50
}

; Function Attrs: mustprogress uwtable
define internal noundef zeroext i1 @_ZZN4tokuL38iterate_and_get_overlapping_row_locks2EPKNS_15concurrent_tree15locked_keyrangeEPK10__toku_dbtS6_PNS_10comparatorEmPNS_13GrowableArrayINS_8row_lockEEEEN11copy_fn_obj2fnERKNS_8keyrangeEmbP11TxnidVector(ptr noundef nonnull align 8 dereferenceable(40) %0, ptr noundef nonnull align 8 dereferenceable(81) %1, i64 noundef %2, i1 noundef zeroext %3, ptr noundef %4) #0 align 2 {
  %6 = alloca ptr, align 8
  %7 = alloca ptr, align 8
  %8 = alloca i64, align 8
  %9 = alloca i8, align 1
  %10 = alloca ptr, align 8
  %11 = alloca %"struct.toku::row_lock", align 8
  %12 = alloca %"struct.toku::row_lock", align 8
  store ptr %0, ptr %6, align 8, !tbaa !227
  store ptr %1, ptr %7, align 8, !tbaa !217
  store i64 %2, ptr %8, align 8, !tbaa !46
  %13 = zext i1 %3 to i8
  store i8 %13, ptr %9, align 1, !tbaa !67
  store ptr %4, ptr %10, align 8, !tbaa !138
  %14 = load ptr, ptr %6, align 8
  %15 = getelementptr inbounds nuw %struct.copy_fn_obj.9, ptr %14, i32 0, i32 1
  %16 = load i8, ptr %15, align 8, !tbaa !229, !range !68, !noundef !69
  %17 = trunc i8 %16 to i1
  br i1 %17, label %18, label %43

18:                                               ; preds = %5
  %19 = getelementptr inbounds nuw %struct.copy_fn_obj.9, ptr %14, i32 0, i32 1
  store i8 0, ptr %19, align 8, !tbaa !229
  %20 = load i8, ptr %9, align 1, !tbaa !67, !range !68, !noundef !69
  %21 = trunc i8 %20 to i1
  br i1 %21, label %22, label %42

22:                                               ; preds = %18
  %23 = getelementptr inbounds nuw %struct.copy_fn_obj.9, ptr %14, i32 0, i32 5
  %24 = load ptr, ptr %23, align 8, !tbaa !133
  %25 = getelementptr inbounds nuw %struct.copy_fn_obj.9, ptr %14, i32 0, i32 3
  %26 = load ptr, ptr %25, align 8, !tbaa !131
  %27 = load ptr, ptr %7, align 8, !tbaa !217
  %28 = call noundef ptr @_ZNK4toku8keyrange12get_left_keyEv(ptr noundef nonnull align 8 dereferenceable(81) %27)
  %29 = call noundef i32 @_ZNK4toku10comparatorclEPK10__toku_dbtS3_(ptr noundef nonnull align 8 dereferenceable(17) %24, ptr noundef %26, ptr noundef %28)
  %30 = icmp ne i32 %29, 0
  br i1 %30, label %42, label %31

31:                                               ; preds = %22
  %32 = getelementptr inbounds nuw %struct.copy_fn_obj.9, ptr %14, i32 0, i32 5
  %33 = load ptr, ptr %32, align 8, !tbaa !133
  %34 = getelementptr inbounds nuw %struct.copy_fn_obj.9, ptr %14, i32 0, i32 4
  %35 = load ptr, ptr %34, align 8, !tbaa !132
  %36 = load ptr, ptr %7, align 8, !tbaa !217
  %37 = call noundef ptr @_ZNK4toku8keyrange13get_right_keyEv(ptr noundef nonnull align 8 dereferenceable(81) %36)
  %38 = call noundef i32 @_ZNK4toku10comparatorclEPK10__toku_dbtS3_(ptr noundef nonnull align 8 dereferenceable(17) %33, ptr noundef %35, ptr noundef %37)
  %39 = icmp ne i32 %38, 0
  br i1 %39, label %42, label %40

40:                                               ; preds = %31
  %41 = getelementptr inbounds nuw %struct.copy_fn_obj.9, ptr %14, i32 0, i32 2
  store i8 1, ptr %41, align 1, !tbaa !134
  br label %42

42:                                               ; preds = %40, %31, %22, %18
  br label %45

43:                                               ; preds = %5
  %44 = getelementptr inbounds nuw %struct.copy_fn_obj.9, ptr %14, i32 0, i32 2
  store i8 0, ptr %44, align 1, !tbaa !134
  br label %45

45:                                               ; preds = %43, %42
  call void @llvm.lifetime.start.p0(i64 112, ptr %11) #18
  %46 = getelementptr inbounds nuw %"struct.toku::row_lock", ptr %11, i32 0, i32 0
  %47 = load ptr, ptr %7, align 8, !tbaa !217
  call void @llvm.memcpy.p0.p0.i64(ptr align 8 %46, ptr align 8 %47, i64 81, i1 false), !tbaa.struct !100
  %48 = getelementptr inbounds nuw %"struct.toku::row_lock", ptr %11, i32 0, i32 1
  %49 = load i64, ptr %8, align 8, !tbaa !46
  store i64 %49, ptr %48, align 8, !tbaa !101
  %50 = getelementptr inbounds nuw %"struct.toku::row_lock", ptr %11, i32 0, i32 2
  %51 = load i8, ptr %9, align 1, !tbaa !67, !range !68, !noundef !69
  %52 = trunc i8 %51 to i1
  %53 = zext i1 %52 to i8
  store i8 %53, ptr %50, align 8, !tbaa !106
  %54 = getelementptr inbounds nuw %"struct.toku::row_lock", ptr %11, i32 0, i32 3
  %55 = load ptr, ptr %10, align 8, !tbaa !138
  store ptr %55, ptr %54, align 8, !tbaa !107
  %56 = getelementptr inbounds nuw %struct.copy_fn_obj.9, ptr %14, i32 0, i32 0
  %57 = load ptr, ptr %56, align 8, !tbaa !129
  call void @llvm.memcpy.p0.p0.i64(ptr align 8 %12, ptr align 8 %11, i64 112, i1 false), !tbaa.struct !140
  call void @_ZN4toku13GrowableArrayINS_8row_lockEE4pushES1_(ptr noundef nonnull align 8 dereferenceable(24) %57, ptr noundef byval(%"struct.toku::row_lock") align 8 %12)
  call void @llvm.lifetime.end.p0(i64 112, ptr %11) #18
  ret i1 true
}