; Function Attrs: mustprogress uwtable
define internal fastcc void @_ZZN4tokuL38iterate_and_get_overlapping_row_locks2EPKNS_15concurrent_tree15locked_keyrangeEPK10__toku_dbtS6_PNS_10comparatorEmPNS_13GrowableArrayINS_8row_lockEEEEN11copy_fn_obj2fnERKNS_8keyrangeEmbP11TxnidVector(ptr noundef nonnull align 8 captures(none) dereferenceable(40) %0, ptr noundef nonnull align 8 dereferenceable(81) %1, i64 noundef %2, i1 noundef zeroext %3, ptr noundef %4) unnamed_addr #0 align 2 {
  %.sroa.017 = alloca %"class.toku::keyrange", align 8
  %6 = getelementptr inbounds nuw i8, ptr %0, i64 8
  %7 = load i8, ptr %6, align 8, !tbaa !92, !range !67, !noundef !68
  %8 = trunc nuw i8 %7 to i1
  br i1 %8, label %9, label %.sink.split

9:                                                ; preds = %5
  store i8 0, ptr %6, align 8, !tbaa !92
  br i1 %3, label %10, label %70

10:                                               ; preds = %9
  %11 = getelementptr inbounds nuw i8, ptr %0, i64 32
  %12 = load ptr, ptr %11, align 8, !tbaa !99
  %13 = getelementptr inbounds nuw i8, ptr %0, i64 16
  %14 = load ptr, ptr %13, align 8, !tbaa !97
  %15 = tail call noundef ptr @_ZNK4toku8keyrange12get_left_keyEv(ptr noundef nonnull align 8 dereferenceable(81) %1)
  %16 = tail call noundef zeroext i1 @_Z20toku_dbt_is_infinitePK10__toku_dbt(ptr noundef %14)
  br i1 %16, label %.critedge.i, label %17, !prof !59

17:                                               ; preds = %10
  %18 = tail call noundef zeroext i1 @_Z20toku_dbt_is_infinitePK10__toku_dbt(ptr noundef %15)
  br i1 %18, label %.critedge.i, label %20, !prof !59

.critedge.i:                                      ; preds = %17, %10
  %19 = tail call noundef i32 @_Z25toku_dbt_infinite_comparePK10__toku_dbtS1_(ptr noundef %14, ptr noundef %15)
  br label %_ZNK4toku10comparatorclEPK10__toku_dbtS3_.exit

20:                                               ; preds = %17
  %21 = getelementptr inbounds nuw i8, ptr %12, i64 16
  %22 = load i8, ptr %21, align 8, !tbaa !41
  %.not.i = icmp eq i8 %22, 0
  br i1 %.not.i, label %35, label %23

23:                                               ; preds = %20
  %24 = load ptr, ptr %14, align 8, !tbaa !180
  %25 = load i8, ptr %24, align 1, !tbaa !52
  %26 = sext i8 %25 to i32
  %27 = zext i8 %22 to i32
  %28 = icmp eq i32 %26, %27
  br i1 %28, label %29, label %35

29:                                               ; preds = %23
  %30 = load ptr, ptr %15, align 8, !tbaa !180
  %31 = load i8, ptr %30, align 1, !tbaa !52
  %32 = icmp eq i8 %31, %25
  br i1 %32, label %33, label %35, !prof !181

33:                                               ; preds = %29
  %34 = tail call noundef i32 @_Z24toku_builtin_compare_funPK10__toku_dbtS1_(ptr noundef nonnull %14, ptr noundef nonnull %15)
  br label %_ZNK4toku10comparatorclEPK10__toku_dbtS3_.exit

35:                                               ; preds = %29, %23, %20
  %36 = load ptr, ptr %12, align 8, !tbaa !39
  %37 = getelementptr inbounds nuw i8, ptr %12, i64 8
  %38 = load ptr, ptr %37, align 8, !tbaa !40
  %39 = tail call noundef i32 %36(ptr noundef %38, ptr noundef %14, ptr noundef %15)
  br label %_ZNK4toku10comparatorclEPK10__toku_dbtS3_.exit

_ZNK4toku10comparatorclEPK10__toku_dbtS3_.exit:   ; preds = %.critedge.i, %33, %35
  %.0.i = phi i32 [ %19, %.critedge.i ], [ %34, %33 ], [ %39, %35 ]
  %.not = icmp eq i32 %.0.i, 0
  br i1 %.not, label %40, label %70

40:                                               ; preds = %_ZNK4toku10comparatorclEPK10__toku_dbtS3_.exit
  %41 = load ptr, ptr %11, align 8, !tbaa !99
  %42 = getelementptr inbounds nuw i8, ptr %0, i64 24
  %43 = load ptr, ptr %42, align 8, !tbaa !98
  %44 = tail call noundef ptr @_ZNK4toku8keyrange13get_right_keyEv(ptr noundef nonnull align 8 dereferenceable(81) %1)
  %45 = tail call noundef zeroext i1 @_Z20toku_dbt_is_infinitePK10__toku_dbt(ptr noundef %43)
  br i1 %45, label %.critedge.i11, label %46, !prof !59

46:                                               ; preds = %40
  %47 = tail call noundef zeroext i1 @_Z20toku_dbt_is_infinitePK10__toku_dbt(ptr noundef %44)
  br i1 %47, label %.critedge.i11, label %49, !prof !59

.critedge.i11:                                    ; preds = %46, %40
  %48 = tail call noundef i32 @_Z25toku_dbt_infinite_comparePK10__toku_dbtS1_(ptr noundef %43, ptr noundef %44)
  br label %_ZNK4toku10comparatorclEPK10__toku_dbtS3_.exit12

49:                                               ; preds = %46
  %50 = getelementptr inbounds nuw i8, ptr %41, i64 16
  %51 = load i8, ptr %50, align 8, !tbaa !41
  %.not.i9 = icmp eq i8 %51, 0
  br i1 %.not.i9, label %64, label %52

52:                                               ; preds = %49
  %53 = load ptr, ptr %43, align 8, !tbaa !180
  %54 = load i8, ptr %53, align 1, !tbaa !52
  %55 = sext i8 %54 to i32
  %56 = zext i8 %51 to i32
  %57 = icmp eq i32 %55, %56
  br i1 %57, label %58, label %64

58:                                               ; preds = %52
  %59 = load ptr, ptr %44, align 8, !tbaa !180
  %60 = load i8, ptr %59, align 1, !tbaa !52
  %61 = icmp eq i8 %60, %54
  br i1 %61, label %62, label %64, !prof !181

62:                                               ; preds = %58
  %63 = tail call noundef i32 @_Z24toku_builtin_compare_funPK10__toku_dbtS1_(ptr noundef nonnull %43, ptr noundef nonnull %44)
  br label %_ZNK4toku10comparatorclEPK10__toku_dbtS3_.exit12

64:                                               ; preds = %58, %52, %49
  %65 = load ptr, ptr %41, align 8, !tbaa !39
  %66 = getelementptr inbounds nuw i8, ptr %41, i64 8
  %67 = load ptr, ptr %66, align 8, !tbaa !40
  %68 = tail call noundef i32 %65(ptr noundef %67, ptr noundef %43, ptr noundef %44)
  br label %_ZNK4toku10comparatorclEPK10__toku_dbtS3_.exit12

_ZNK4toku10comparatorclEPK10__toku_dbtS3_.exit12: ; preds = %.critedge.i11, %62, %64
  %.0.i10 = phi i32 [ %48, %.critedge.i11 ], [ %63, %62 ], [ %68, %64 ]
  %.not8 = icmp eq i32 %.0.i10, 0
  br i1 %.not8, label %.sink.split, label %70

.sink.split:                                      ; preds = %5, %_ZNK4toku10comparatorclEPK10__toku_dbtS3_.exit12
  %.sink = phi i8 [ 1, %_ZNK4toku10comparatorclEPK10__toku_dbtS3_.exit12 ], [ 0, %5 ]
  %69 = getelementptr inbounds nuw i8, ptr %0, i64 9
  store i8 %.sink, ptr %69, align 1, !tbaa !95
  br label %70

70:                                               ; preds = %.sink.split, %9, %_ZNK4toku10comparatorclEPK10__toku_dbtS3_.exit, %_ZNK4toku10comparatorclEPK10__toku_dbtS3_.exit12
  call void @llvm.lifetime.start.p0(i64 88, ptr nonnull %.sroa.017)
  call void @llvm.memcpy.p0.p0.i64(ptr noundef nonnull align 8 dereferenceable(81) %.sroa.017, ptr noundef nonnull align 8 dereferenceable(81) %1, i64 81, i1 false)
  %71 = load ptr, ptr %0, align 8, !tbaa !96
  %72 = getelementptr inbounds nuw i8, ptr %71, i64 8
  %73 = load i64, ptr %72, align 8, !tbaa !109
  %74 = getelementptr inbounds nuw i8, ptr %71, i64 16
  %75 = load i64, ptr %74, align 8, !tbaa !179
  %.not.i13 = icmp ult i64 %73, %75
  %.pre.i = load ptr, ptr %71, align 8, !tbaa !112
  br i1 %.not.i13, label %_ZN4toku13GrowableArrayINS_8row_lockEE4pushES1_.exit, label %76

76:                                               ; preds = %70
  %77 = icmp eq ptr %.pre.i, null
  %78 = shl i64 %75, 1
  %storemerge.i = select i1 %77, i64 1, i64 %78
  store i64 %storemerge.i, ptr %74, align 8, !tbaa !179
  %79 = mul i64 %storemerge.i, 112
  %80 = tail call noundef ptr @_Z13toku_xreallocPvm(ptr noundef %.pre.i, i64 noundef %79)
  store ptr %80, ptr %71, align 8, !tbaa !112
  %.pre1.i = load i64, ptr %72, align 8, !tbaa !109
  br label %_ZN4toku13GrowableArrayINS_8row_lockEE4pushES1_.exit

_ZN4toku13GrowableArrayINS_8row_lockEE4pushES1_.exit: ; preds = %70, %76
  %81 = phi i64 [ %.pre1.i, %76 ], [ %73, %70 ]
  %82 = phi ptr [ %80, %76 ], [ %.pre.i, %70 ]
  %83 = zext i1 %3 to i8
  %84 = add i64 %81, 1
  store i64 %84, ptr %72, align 8, !tbaa !109
  %85 = getelementptr inbounds nuw %"struct.toku::row_lock", ptr %82, i64 %81
  call void @llvm.memcpy.p0.p0.i64(ptr noundef nonnull align 8 dereferenceable(88) %85, ptr noundef nonnull align 8 dereferenceable(88) %.sroa.017, i64 88, i1 false), !tbaa.struct !126
  %.sroa.418.0..sroa_idx = getelementptr inbounds nuw i8, ptr %85, i64 88
  store i64 %2, ptr %.sroa.418.0..sroa_idx, align 8, !tbaa !38
  %.sroa.519.0..sroa_idx = getelementptr inbounds nuw i8, ptr %85, i64 96
  store i8 %83, ptr %.sroa.519.0..sroa_idx, align 8, !tbaa !103
  %.sroa.7.0..sroa_idx = getelementptr inbounds nuw i8, ptr %85, i64 104
  store ptr %4, ptr %.sroa.7.0..sroa_idx, align 8, !tbaa !117
  call void @llvm.lifetime.end.p0(i64 88, ptr nonnull %.sroa.017)
  ret void
}